target datalayout = "e-m:e-p270:32:32-p271:32:32-p272:64:64-i64:64-i128:128-f80:128-n8:16:32:64-S128"
target triple = "x86_64-pc-linux-gnu"

%union.anon = type { ptr }
%struct.AVCodecContext = type { ptr, i32, i32, ptr, i32, i32, ptr, ptr, ptr, i64, i32, i32, ptr, i32, %struct.AVRational, %struct.AVRational, %struct.AVRational, i32, i32, i32, i32, i32, %struct.AVRational, i32, i32, i32, i32, i32, i32, i32, i32, i32, i32, i32, ptr, ptr, i32, float, float, float, float, float, float, float, float, float, i32, i32, i32, i32, i32, i32, i32, i32, i32, i32, i32, i32, ptr, ptr, ptr, i32, i32, i32, i32, i32, i32, i32, i32, i32, i32, %struct.AVChannelLayout, i32, i32, i32, i32, i32, i32, i32, i32, ptr, i32, i32, i32, float, float, i32, i32, i32, i32, i32, ptr, i64, i64, float, float, i32, i32, ptr, ptr, i32, i32, i32, i32, i32, ptr, ptr, ptr, ptr, i32, i32, [8 x i64], i32, i32, i32, i32, i32, i32, i32, ptr, ptr, i32, i32, i32, i32, i32, i32, i32, i32, i32, i32, ptr, ptr, i32, i32, ptr, ptr, ptr, ptr, i32, i32, i64, i32, i32, i64, ptr, i64, ptr, i32, ptr, i32 }
%struct.AVRational = type { i32, i32 }
%struct.AVChannelLayout = type { i32, i32, %union.anon.0, ptr }
%union.anon.0 = type { i64 }
%struct.AVPacket = type { ptr, i64, i64, ptr, i32, i32, i32, ptr, i32, i64, i64, ptr, ptr, %struct.AVRational }
%struct.AVFrame = type { [8 x ptr], [8 x i32], ptr, i32, i32, i32, i32, i32, %struct.AVRational, i64, i64, %struct.AVRational, i32, ptr, i32, i32, [8 x ptr], ptr, i32, ptr, i32, i32, i32, i32, i32, i32, i32, i64, ptr, i32, ptr, ptr, i64, i64, i64, i64, ptr, %struct.AVChannelLayout, i64 }

@.str = private unnamed_addr constant [5 x i8] c"v408\00", align 1
@.str.1 = private unnamed_addr constant [31 x i8] c"Uncompressed packed QT 4:4:4:4\00", align 1
@pix_fmt = internal constant [2 x i32] [i32 79, i32 -1], align 4
@ff_v408_encoder = constant { { ptr, ptr, i32, i32, i32, i8, [3 x i8], ptr, ptr, ptr, ptr, ptr, ptr, ptr, ptr }, i8, i8, i8, i8, i32, ptr, ptr, ptr, ptr, %union.anon, ptr, ptr, ptr, ptr, ptr, ptr } { { ptr, ptr, i32, i32, i32, i8, [3 x i8], ptr, ptr, ptr, ptr, ptr, ptr, ptr, ptr } { ptr @.str, ptr @.str.1, i32 0, i32 203, i32 1048578, i8 0, [3 x i8] zeroinitializer, ptr null, ptr @pix_fmt, ptr null, ptr null, ptr null, ptr null, ptr null, ptr null }, i8 0, i8 0, i8 0, i8 96, i32 0, ptr null, ptr null, ptr null, ptr @v408_encode_init, %union.anon { ptr @v408_encode_frame }, ptr null, ptr null, ptr null, ptr null, ptr null, ptr null }, align 8
@.str.2 = private unnamed_addr constant [49 x i8] c"This encoder is deprecated and will be removed.\0A\00", align 1

; Function Attrs: cold nounwind optsize uwtable
define internal i32 @v408_encode_init(ptr noundef %0) #0 {
  %2 = alloca ptr, align 8
  store ptr %0, ptr %2, align 8, !tbaa !4
  %3 = load ptr, ptr %2, align 8, !tbaa !4
  %4 = getelementptr inbounds nuw %struct.AVCodecContext, ptr %3, i32 0, i32 114
  store i32 32, ptr %4, align 8, !tbaa !9
  %5 = load ptr, ptr %2, align 8, !tbaa !4
  %6 = call i64 @ff_guess_coded_bitrate(ptr noundef %5)
  %7 = load ptr, ptr %2, align 8, !tbaa !4
  %8 = getelementptr inbounds nuw %struct.AVCodecContext, ptr %7, i32 0, i32 9
  store i64 %6, ptr %8, align 8, !tbaa !29
  %9 = load ptr, ptr %2, align 8, !tbaa !4
  call void (ptr, i32, ptr, ...) @av_log(ptr noundef %9, i32 noundef 24, ptr noundef @.str.2)
  ret i32 0
}

; Function Attrs: nounwind uwtable
define internal i32 @v408_encode_frame(ptr noundef %0, ptr noundef %1, ptr noundef %2, ptr noundef %3) #1 {
  %5 = alloca i32, align 4
  %6 = alloca ptr, align 8
  %7 = alloca ptr, align 8
  %8 = alloca ptr, align 8
  %9 = alloca ptr, align 8
  %10 = alloca ptr, align 8
  %11 = alloca ptr, align 8
  %12 = alloca ptr, align 8
  %13 = alloca ptr, align 8
  %14 = alloca ptr, align 8
  %15 = alloca i32, align 4
  %16 = alloca i32, align 4
  %17 = alloca i32, align 4
  %18 = alloca i32, align 4
  store ptr %0, ptr %6, align 8, !tbaa !4
  store ptr %1, ptr %7, align 8, !tbaa !30
  store ptr %2, ptr %8, align 8, !tbaa !32
  store ptr %3, ptr %9, align 8, !tbaa !34
  call void @llvm.lifetime.start.p0(i64 8, ptr %10) #4
  call void @llvm.lifetime.start.p0(i64 8, ptr %11) #4
  call void @llvm.lifetime.start.p0(i64 8, ptr %12) #4
  call void @llvm.lifetime.start.p0(i64 8, ptr %13) #4
  call void @llvm.lifetime.start.p0(i64 8, ptr %14) #4
  call void @llvm.lifetime.start.p0(i64 4, ptr %15) #4
  call void @llvm.lifetime.start.p0(i64 4, ptr %16) #4
  call void @llvm.lifetime.start.p0(i64 4, ptr %17) #4
  %19 = load ptr, ptr %6, align 8, !tbaa !4
  %20 = load ptr, ptr %7, align 8, !tbaa !30
  %21 = load ptr, ptr %6, align 8, !tbaa !4
  %22 = getelementptr inbounds nuw %struct.AVCodecContext, ptr %21, i32 0, i32 18
  %23 = load i32, ptr %22, align 8, !tbaa !35
  %24 = load ptr, ptr %6, align 8, !tbaa !4
  %25 = getelementptr inbounds nuw %struct.AVCodecContext, ptr %24, i32 0, i32 19
  %26 = load i32, ptr %25, align 4, !tbaa !36
  %27 = mul nsw i32 %23, %26
  %28 = mul nsw i32 %27, 4
  %29 = sext i32 %28 to i64
  %30 = call i32 @ff_get_encode_buffer(ptr noundef %19, ptr noundef %20, i64 noundef %29, i32 noundef 0)
  store i32 %30, ptr %17, align 4, !tbaa !37
  %31 = load i32, ptr %17, align 4, !tbaa !37
  %32 = icmp slt i32 %31, 0
  br i1 %32, label %33, label %35

33:                                               ; preds = %4
  %34 = load i32, ptr %17, align 4, !tbaa !37
  store i32 %34, ptr %5, align 4
  store i32 1, ptr %18, align 4
  br label %134

35:                                               ; preds = %4
  %36 = load ptr, ptr %7, align 8, !tbaa !30
  %37 = getelementptr inbounds nuw %struct.AVPacket, ptr %36, i32 0, i32 3
  %38 = load ptr, ptr %37, align 8, !tbaa !38
  store ptr %38, ptr %10, align 8, !tbaa !40
  %39 = load ptr, ptr %8, align 8, !tbaa !32
  %40 = getelementptr inbounds nuw %struct.AVFrame, ptr %39, i32 0, i32 0
  %41 = getelementptr inbounds [8 x ptr], ptr %40, i64 0, i64 0
  %42 = load ptr, ptr %41, align 8, !tbaa !40
  store ptr %42, ptr %11, align 8, !tbaa !40
  %43 = load ptr, ptr %8, align 8, !tbaa !32
  %44 = getelementptr inbounds nuw %struct.AVFrame, ptr %43, i32 0, i32 0
  %45 = getelementptr inbounds [8 x ptr], ptr %44, i64 0, i64 1
  %46 = load ptr, ptr %45, align 8, !tbaa !40
  store ptr %46, ptr %12, align 8, !tbaa !40
  %47 = load ptr, ptr %8, align 8, !tbaa !32
  %48 = getelementptr inbounds nuw %struct.AVFrame, ptr %47, i32 0, i32 0
  %49 = getelementptr inbounds [8 x ptr], ptr %48, i64 0, i64 2
  %50 = load ptr, ptr %49, align 8, !tbaa !40
  store ptr %50, ptr %13, align 8, !tbaa !40
  %51 = load ptr, ptr %8, align 8, !tbaa !32
  %52 = getelementptr inbounds nuw %struct.AVFrame, ptr %51, i32 0, i32 0
  %53 = getelementptr inbounds [8 x ptr], ptr %52, i64 0, i64 3
  %54 = load ptr, ptr %53, align 8, !tbaa !40
  store ptr %54, ptr %14, align 8, !tbaa !40
  store i32 0, ptr %15, align 4, !tbaa !37
  br label %55

55:                                               ; preds = %129, %35
  %56 = load i32, ptr %15, align 4, !tbaa !37
  %57 = load ptr, ptr %6, align 8, !tbaa !4
  %58 = getelementptr inbounds nuw %struct.AVCodecContext, ptr %57, i32 0, i32 19
  %59 = load i32, ptr %58, align 4, !tbaa !36
  %60 = icmp slt i32 %56, %59
  br i1 %60, label %61, label %132

61:                                               ; preds = %55
  store i32 0, ptr %16, align 4, !tbaa !37
  br label %62

62:                                               ; preds = %97, %61
  %63 = load i32, ptr %16, align 4, !tbaa !37
  %64 = load ptr, ptr %6, align 8, !tbaa !4
  %65 = getelementptr inbounds nuw %struct.AVCodecContext, ptr %64, i32 0, i32 18
  %66 = load i32, ptr %65, align 8, !tbaa !35
  %67 = icmp slt i32 %63, %66
  br i1 %67, label %68, label %100

68:                                               ; preds = %62
  %69 = load ptr, ptr %12, align 8, !tbaa !40
  %70 = load i32, ptr %16, align 4, !tbaa !37
  %71 = sext i32 %70 to i64
  %72 = getelementptr inbounds i8, ptr %69, i64 %71
  %73 = load i8, ptr %72, align 1, !tbaa !41
  %74 = load ptr, ptr %10, align 8, !tbaa !40
  %75 = getelementptr inbounds nuw i8, ptr %74, i32 1
  store ptr %75, ptr %10, align 8, !tbaa !40
  store i8 %73, ptr %74, align 1, !tbaa !41
  %76 = load ptr, ptr %11, align 8, !tbaa !40
  %77 = load i32, ptr %16, align 4, !tbaa !37
  %78 = sext i32 %77 to i64
  %79 = getelementptr inbounds i8, ptr %76, i64 %78
  %80 = load i8, ptr %79, align 1, !tbaa !41
  %81 = load ptr, ptr %10, align 8, !tbaa !40
  %82 = getelementptr inbounds nuw i8, ptr %81, i32 1
  store ptr %82, ptr %10, align 8, !tbaa !40
  store i8 %80, ptr %81, align 1, !tbaa !41
  %83 = load ptr, ptr %13, align 8, !tbaa !40
  %84 = load i32, ptr %16, align 4, !tbaa !37
  %85 = sext i32 %84 to i64
  %86 = getelementptr inbounds i8, ptr %83, i64 %85
  %87 = load i8, ptr %86, align 1, !tbaa !41
  %88 = load ptr, ptr %10, align 8, !tbaa !40
  %89 = getelementptr inbounds nuw i8, ptr %88, i32 1
  store ptr %89, ptr %10, align 8, !tbaa !40
  store i8 %87, ptr %88, align 1, !tbaa !41
  %90 = load ptr, ptr %14, align 8, !tbaa !40
  %91 = load i32, ptr %16, align 4, !tbaa !37
  %92 = sext i32 %91 to i64
  %93 = getelementptr inbounds i8, ptr %90, i64 %92
  %94 = load i8, ptr %93, align 1, !tbaa !41
  %95 = load ptr, ptr %10, align 8, !tbaa !40
  %96 = getelementptr inbounds nuw i8, ptr %95, i32 1
  store ptr %96, ptr %10, align 8, !tbaa !40
  store i8 %94, ptr %95, align 1, !tbaa !41
  br label %97

97:                                               ; preds = %68
  %98 = load i32, ptr %16, align 4, !tbaa !37
  %99 = add nsw i32 %98, 1
  store i32 %99, ptr %16, align 4, !tbaa !37
  br label %62, !llvm.loop !42

100:                                              ; preds = %62
  %101 = load ptr, ptr %8, align 8, !tbaa !32
  %102 = getelementptr inbounds nuw %struct.AVFrame, ptr %101, i32 0, i32 1
  %103 = getelementptr inbounds [8 x i32], ptr %102, i64 0, i64 0
  %104 = load i32, ptr %103, align 8, !tbaa !37
  %105 = load ptr, ptr %11, align 8, !tbaa !40
  %106 = sext i32 %104 to i64
  %107 = getelementptr inbounds i8, ptr %105, i64 %106
  store ptr %107, ptr %11, align 8, !tbaa !40
  %108 = load ptr, ptr %8, align 8, !tbaa !32
  %109 = getelementptr inbounds nuw %struct.AVFrame, ptr %108, i32 0, i32 1
  %110 = getelementptr inbounds [8 x i32], ptr %109, i64 0, i64 1
  %111 = load i32, ptr %110, align 4, !tbaa !37
  %112 = load ptr, ptr %12, align 8, !tbaa !40
  %113 = sext i32 %111 to i64
  %114 = getelementptr inbounds i8, ptr %112, i64 %113
  store ptr %114, ptr %12, align 8, !tbaa !40
  %115 = load ptr, ptr %8, align 8, !tbaa !32
  %116 = getelementptr inbounds nuw %struct.AVFrame, ptr %115, i32 0, i32 1
  %117 = getelementptr inbounds [8 x i32], ptr %116, i64 0, i64 2
  %118 = load i32, ptr %117, align 8, !tbaa !37
  %119 = load ptr, ptr %13, align 8, !tbaa !40
  %120 = sext i32 %118 to i64
  %121 = getelementptr inbounds i8, ptr %119, i64 %120
  store ptr %121, ptr %13, align 8, !tbaa !40
  %122 = load ptr, ptr %8, align 8, !tbaa !32
  %123 = getelementptr inbounds nuw %struct.AVFrame, ptr %122, i32 0, i32 1
  %124 = getelementptr inbounds [8 x i32], ptr %123, i64 0, i64 3
  %125 = load i32, ptr %124, align 4, !tbaa !37
  %126 = load ptr, ptr %14, align 8, !tbaa !40
  %127 = sext i32 %125 to i64
  %128 = getelementptr inbounds i8, ptr %126, i64 %127
  store ptr %128, ptr %14, align 8, !tbaa !40
  br label %129

129:                                              ; preds = %100
  %130 = load i32, ptr %15, align 4, !tbaa !37
  %131 = add nsw i32 %130, 1
  store i32 %131, ptr %15, align 4, !tbaa !37
  br label %55, !llvm.loop !44

132:                                              ; preds = %55
  %133 = load ptr, ptr %9, align 8, !tbaa !34
  store i32 1, ptr %133, align 4, !tbaa !37
  store i32 0, ptr %5, align 4
  store i32 1, ptr %18, align 4
  br label %134

134:                                              ; preds = %132, %33
  call void @llvm.lifetime.end.p0(i64 4, ptr %17) #4
  call void @llvm.lifetime.end.p0(i64 4, ptr %16) #4
  call void @llvm.lifetime.end.p0(i64 4, ptr %15) #4
  call void @llvm.lifetime.end.p0(i64 8, ptr %14) #4
  call void @llvm.lifetime.end.p0(i64 8, ptr %13) #4
  call void @llvm.lifetime.end.p0(i64 8, ptr %12) #4
  call void @llvm.lifetime.end.p0(i64 8, ptr %11) #4
  call void @llvm.lifetime.end.p0(i64 8, ptr %10) #4
  %135 = load i32, ptr %5, align 4
  ret i32 %135
}

declare i64 @ff_guess_coded_bitrate(ptr noundef) #2

declare void @av_log(ptr noundef, i32 noundef, ptr noundef, ...) #2

; Function Attrs: nocallback nofree nosync nounwind willreturn memory(argmem: readwrite)
declare void @llvm.lifetime.start.p0(i64 immarg, ptr captures(none)) #3

declare i32 @ff_get_encode_buffer(ptr noundef, ptr noundef, i64 noundef, i32 noundef) #2

; Function Attrs: nocallback nofree nosync nounwind willreturn memory(argmem: readwrite)
declare void @llvm.lifetime.end.p0(i64 immarg, ptr captures(none)) #3


!llvm.module.flags = !{!0, !1, !2, !3}

!0 = !{i32 1, !"wchar_size", i32 4}
!1 = !{i32 8, !"PIC Level", i32 2}
!2 = !{i32 7, !"uwtable", i32 2}
!3 = !{i32 1, !"override-stack-alignment", i32 16}
!4 = !{!5, !5, i64 0}
!5 = !{!"p1 _ZTS14AVCodecContext", !6, i64 0}
!6 = !{!"any pointer", !7, i64 0}
!7 = !{!"omnipotent char", !8, i64 0}
!8 = !{!"Simple C/C++ TBAA"}
!9 = !{!10, !12, i64 648}
!10 = !{!"AVCodecContext", !11, i64 0, !12, i64 8, !12, i64 12, !13, i64 16, !12, i64 24, !12, i64 28, !6, i64 32, !14, i64 40, !6, i64 48, !15, i64 56, !12, i64 64, !12, i64 68, !16, i64 72, !12, i64 80, !17, i64 84, !17, i64 92, !17, i64 100, !12, i64 108, !12, i64 112, !12, i64 116, !12, i64 120, !12, i64 124, !17, i64 128, !12, i64 136, !12, i64 140, !12, i64 144, !12, i64 148, !12, i64 152, !12, i64 156, !12, i64 160, !12, i64 164, !12, i64 168, !12, i64 172, !12, i64 176, !6, i64 184, !6, i64 192, !12, i64 200, !18, i64 204, !18, i64 208, !18, i64 212, !18, i64 216, !18, i64 220, !18, i64 224, !18, i64 228, !18, i64 232, !18, i64 236, !12, i64 240, !12, i64 244, !12, i64 248, !12, i64 252, !12, i64 256, !12, i64 260, !12, i64 264, !12, i64 268, !12, i64 272, !12, i64 276, !12, i64 280, !12, i64 284, !19, i64 288, !19, i64 296, !19, i64 304, !12, i64 312, !12, i64 316, !12, i64 320, !12, i64 324, !12, i64 328, !12, i64 332, !12, i64 336, !12, i64 340, !12, i64 344, !12, i64 348, !20, i64 352, !12, i64 376, !12, i64 380, !12, i64 384, !12, i64 388, !12, i64 392, !12, i64 396, !12, i64 400, !12, i64 404, !6, i64 408, !12, i64 416, !12, i64 420, !12, i64 424, !18, i64 428, !18, i64 432, !12, i64 436, !12, i64 440, !12, i64 444, !12, i64 448, !12, i64 452, !21, i64 456, !15, i64 464, !15, i64 472, !18, i64 480, !18, i64 484, !12, i64 488, !12, i64 492, !16, i64 496, !16, i64 504, !12, i64 512, !12, i64 516, !12, i64 520, !12, i64 524, !12, i64 528, !22, i64 536, !6, i64 544, !23, i64 552, !23, i64 560, !12, i64 568, !12, i64 572, !7, i64 576, !12, i64 640, !12, i64 644, !12, i64 648, !12, i64 652, !12, i64 656, !12, i64 660, !12, i64 664, !6, i64 672, !6, i64 680, !12, i64 688, !12, i64 692, !12, i64 696, !12, i64 700, !12, i64 704, !12, i64 708, !12, i64 712, !12, i64 716, !12, i64 720, !12, i64 724, !24, i64 728, !16, i64 736, !12, i64 744, !12, i64 748, !16, i64 752, !16, i64 760, !16, i64 768, !25, i64 776, !12, i64 784, !12, i64 788, !15, i64 792, !12, i64 800, !12, i64 804, !15, i64 808, !6, i64 816, !15, i64 824, !26, i64 832, !12, i64 840, !27, i64 848, !12, i64 856}
!11 = !{!"p1 _ZTS7AVClass", !6, i64 0}
!12 = !{!"int", !7, i64 0}
!13 = !{!"p1 _ZTS7AVCodec", !6, i64 0}
!14 = !{!"p1 _ZTS15AVCodecInternal", !6, i64 0}
!15 = !{!"long", !7, i64 0}
!16 = !{!"p1 omnipotent char", !6, i64 0}
!17 = !{!"AVRational", !12, i64 0, !12, i64 4}
!18 = !{!"float", !7, i64 0}
!19 = !{!"p1 short", !6, i64 0}
!20 = !{!"AVChannelLayout", !12, i64 0, !12, i64 4, !7, i64 8, !6, i64 16}
!21 = !{!"p1 _ZTS10RcOverride", !6, i64 0}
!22 = !{!"p1 _ZTS9AVHWAccel", !6, i64 0}
!23 = !{!"p1 _ZTS11AVBufferRef", !6, i64 0}
!24 = !{!"p1 _ZTS17AVCodecDescriptor", !6, i64 0}
!25 = !{!"p1 _ZTS16AVPacketSideData", !6, i64 0}
!26 = !{!"p1 int", !6, i64 0}
!27 = !{!"p2 _ZTS15AVFrameSideData", !28, i64 0}
!28 = !{!"any p2 pointer", !6, i64 0}
!29 = !{!10, !15, i64 56}
!30 = !{!31, !31, i64 0}
!31 = !{!"p1 _ZTS8AVPacket", !6, i64 0}
!32 = !{!33, !33, i64 0}
!33 = !{!"p1 _ZTS7AVFrame", !6, i64 0}
!34 = !{!26, !26, i64 0}
!35 = !{!10, !12, i64 112}
!36 = !{!10, !12, i64 116}
!37 = !{!12, !12, i64 0}
!38 = !{!39, !16, i64 24}
!39 = !{!"AVPacket", !23, i64 0, !15, i64 8, !15, i64 16, !16, i64 24, !12, i64 32, !12, i64 36, !12, i64 40, !25, i64 48, !12, i64 56, !15, i64 64, !15, i64 72, !6, i64 80, !23, i64 88, !17, i64 96}
!40 = !{!16, !16, i64 0}
!41 = !{!7, !7, i64 0}
!42 = distinct !{!42, !43}
!43 = !{!"llvm.loop.mustprogress"}
!44 = distinct !{!44, !43}
